target datalayout = "e-m:e-p270:32:32-p271:32:32-p272:64:64-i64:64-i128:128-f80:128-n8:16:32:64-S128"
target triple = "x86_64-pc-linux-gnu"

%struct.dt_imageio_module_data_t = type { i32, i32, i32, i32, [128 x i8], i32 }
%struct.dt_imageio_png_v1_t = type { i32, i32, i32, i32, [128 x i8], i32, ptr, ptr, ptr }
%struct.dt_imageio_png_v3_t = type { %struct.dt_imageio_module_data_t, i32, i32, ptr, ptr, ptr }
%struct.dt_imageio_png_v2_t = type { i32, i32, i32, i32, [128 x i8], i32, i32, ptr, ptr, ptr }

; Function Attrs: nounwind uwtable
define ptr @legacy_params(ptr noundef %0, ptr noundef %1, i64 noundef %2, i32 noundef %3, ptr noundef %4, ptr noundef %5) #0 {
  %7 = alloca ptr, align 8
  %8 = alloca ptr, align 8
  %9 = alloca ptr, align 8
  %10 = alloca i64, align 8
  %11 = alloca i32, align 4
  %12 = alloca ptr, align 8
  %13 = alloca ptr, align 8
  %14 = alloca ptr, align 8
  %15 = alloca ptr, align 8
  %16 = alloca ptr, align 8
  %17 = alloca ptr, align 8
  store ptr %0, ptr %8, align 8, !tbaa !88
  store ptr %1, ptr %9, align 8, !tbaa !13
  store i64 %2, ptr %10, align 8, !tbaa !82
  store i32 %3, ptr %11, align 4, !tbaa !14
  store ptr %4, ptr %12, align 8, !tbaa !90
  store ptr %5, ptr %13, align 8, !tbaa !91
  %18 = load i32, ptr %11, align 4, !tbaa !14
  %19 = icmp eq i32 %18, 1
  br i1 %19, label %20, label %83

20:                                               ; preds = %6
  call void @llvm.lifetime.start.p0(i64 8, ptr %14) #13
  %21 = load ptr, ptr %9, align 8, !tbaa !13
  store ptr %21, ptr %14, align 8, !tbaa !93
  call void @llvm.lifetime.start.p0(i64 8, ptr %15) #13
  %22 = call noalias ptr @malloc(i64 noundef 184) #15
  store ptr %22, ptr %15, align 8, !tbaa !95
  %23 = load ptr, ptr %14, align 8, !tbaa !93
  %24 = getelementptr inbounds nuw %struct.dt_imageio_png_v1_t, ptr %23, i32 0, i32 0
  %25 = load i32, ptr %24, align 8, !tbaa !97
  %26 = load ptr, ptr %15, align 8, !tbaa !95
  %27 = getelementptr inbounds nuw %struct.dt_imageio_png_v3_t, ptr %26, i32 0, i32 0
  %28 = getelementptr inbounds nuw %struct.dt_imageio_module_data_t, ptr %27, i32 0, i32 0
  store i32 %25, ptr %28, align 8, !tbaa !99
  %29 = load ptr, ptr %14, align 8, !tbaa !93
  %30 = getelementptr inbounds nuw %struct.dt_imageio_png_v1_t, ptr %29, i32 0, i32 1
  %31 = load i32, ptr %30, align 4, !tbaa !101
  %32 = load ptr, ptr %15, align 8, !tbaa !95
  %33 = getelementptr inbounds nuw %struct.dt_imageio_png_v3_t, ptr %32, i32 0, i32 0
  %34 = getelementptr inbounds nuw %struct.dt_imageio_module_data_t, ptr %33, i32 0, i32 1
  store i32 %31, ptr %34, align 4, !tbaa !102
  %35 = load ptr, ptr %14, align 8, !tbaa !93
  %36 = getelementptr inbounds nuw %struct.dt_imageio_png_v1_t, ptr %35, i32 0, i32 2
  %37 = load i32, ptr %36, align 8, !tbaa !103
  %38 = load ptr, ptr %15, align 8, !tbaa !95
  %39 = getelementptr inbounds nuw %struct.dt_imageio_png_v3_t, ptr %38, i32 0, i32 0
  %40 = getelementptr inbounds nuw %struct.dt_imageio_module_data_t, ptr %39, i32 0, i32 2
  store i32 %37, ptr %40, align 8, !tbaa !104
  %41 = load ptr, ptr %14, align 8, !tbaa !93
  %42 = getelementptr inbounds nuw %struct.dt_imageio_png_v1_t, ptr %41, i32 0, i32 3
  %43 = load i32, ptr %42, align 4, !tbaa !105
  %44 = load ptr, ptr %15, align 8, !tbaa !95
  %45 = getelementptr inbounds nuw %struct.dt_imageio_png_v3_t, ptr %44, i32 0, i32 0
  %46 = getelementptr inbounds nuw %struct.dt_imageio_module_data_t, ptr %45, i32 0, i32 3
  store i32 %43, ptr %46, align 4, !tbaa !106
  %47 = load ptr, ptr %15, align 8, !tbaa !95
  %48 = getelementptr inbounds nuw %struct.dt_imageio_png_v3_t, ptr %47, i32 0, i32 0
  %49 = getelementptr inbounds nuw %struct.dt_imageio_module_data_t, ptr %48, i32 0, i32 4
  %50 = getelementptr inbounds [128 x i8], ptr %49, i64 0, i64 0
  %51 = load ptr, ptr %14, align 8, !tbaa !93
  %52 = getelementptr inbounds nuw %struct.dt_imageio_png_v1_t, ptr %51, i32 0, i32 4
  %53 = getelementptr inbounds [128 x i8], ptr %52, i64 0, i64 0
  %54 = call i64 @g_strlcpy(ptr noundef %50, ptr noundef %53, i64 noundef 128)
  %55 = load ptr, ptr %15, align 8, !tbaa !95
  %56 = getelementptr inbounds nuw %struct.dt_imageio_png_v3_t, ptr %55, i32 0, i32 0
  %57 = getelementptr inbounds nuw %struct.dt_imageio_module_data_t, ptr %56, i32 0, i32 5
  store i32 0, ptr %57, align 8, !tbaa !107
  %58 = load ptr, ptr %14, align 8, !tbaa !93
  %59 = getelementptr inbounds nuw %struct.dt_imageio_png_v1_t, ptr %58, i32 0, i32 5
  %60 = load i32, ptr %59, align 8, !tbaa !108
  %61 = load ptr, ptr %15, align 8, !tbaa !95
  %62 = getelementptr inbounds nuw %struct.dt_imageio_png_v3_t, ptr %61, i32 0, i32 1
  store i32 %60, ptr %62, align 4, !tbaa !109
  %63 = load ptr, ptr %15, align 8, !tbaa !95
  %64 = getelementptr inbounds nuw %struct.dt_imageio_png_v3_t, ptr %63, i32 0, i32 2
  store i32 9, ptr %64, align 8, !tbaa !110
  %65 = load ptr, ptr %14, align 8, !tbaa !93
  %66 = getelementptr inbounds nuw %struct.dt_imageio_png_v1_t, ptr %65, i32 0, i32 6
  %67 = load ptr, ptr %66, align 8, !tbaa !111
  %68 = load ptr, ptr %15, align 8, !tbaa !95
  %69 = getelementptr inbounds nuw %struct.dt_imageio_png_v3_t, ptr %68, i32 0, i32 3
  store ptr %67, ptr %69, align 8, !tbaa !112
  %70 = load ptr, ptr %14, align 8, !tbaa !93
  %71 = getelementptr inbounds nuw %struct.dt_imageio_png_v1_t, ptr %70, i32 0, i32 7
  %72 = load ptr, ptr %71, align 8, !tbaa !113
  %73 = load ptr, ptr %15, align 8, !tbaa !95
  %74 = getelementptr inbounds nuw %struct.dt_imageio_png_v3_t, ptr %73, i32 0, i32 4
  store ptr %72, ptr %74, align 8, !tbaa !114
  %75 = load ptr, ptr %14, align 8, !tbaa !93
  %76 = getelementptr inbounds nuw %struct.dt_imageio_png_v1_t, ptr %75, i32 0, i32 8
  %77 = load ptr, ptr %76, align 8, !tbaa !115
  %78 = load ptr, ptr %15, align 8, !tbaa !95
  %79 = getelementptr inbounds nuw %struct.dt_imageio_png_v3_t, ptr %78, i32 0, i32 5
  store ptr %77, ptr %79, align 8, !tbaa !116
  %80 = load ptr, ptr %12, align 8, !tbaa !90
  store i32 3, ptr %80, align 4, !tbaa !14
  %81 = load ptr, ptr %13, align 8, !tbaa !91
  store i64 156, ptr %81, align 8, !tbaa !82
  %82 = load ptr, ptr %15, align 8, !tbaa !95
  store ptr %82, ptr %7, align 8
  call void @llvm.lifetime.end.p0(i64 8, ptr %15) #13
  call void @llvm.lifetime.end.p0(i64 8, ptr %14) #13
  br label %154

83:                                               ; preds = %6
  %84 = load i32, ptr %11, align 4, !tbaa !14
  %85 = icmp eq i32 %84, 2
  br i1 %85, label %86, label %152

86:                                               ; preds = %83
  call void @llvm.lifetime.start.p0(i64 8, ptr %16) #13
  %87 = load ptr, ptr %9, align 8, !tbaa !13
  store ptr %87, ptr %16, align 8, !tbaa !117
  call void @llvm.lifetime.start.p0(i64 8, ptr %17) #13
  %88 = call noalias ptr @malloc(i64 noundef 184) #15
  store ptr %88, ptr %17, align 8, !tbaa !95
  %89 = load ptr, ptr %16, align 8, !tbaa !117
  %90 = getelementptr inbounds nuw %struct.dt_imageio_png_v2_t, ptr %89, i32 0, i32 0
  %91 = load i32, ptr %90, align 8, !tbaa !119
  %92 = load ptr, ptr %17, align 8, !tbaa !95
  %93 = getelementptr inbounds nuw %struct.dt_imageio_png_v3_t, ptr %92, i32 0, i32 0
  %94 = getelementptr inbounds nuw %struct.dt_imageio_module_data_t, ptr %93, i32 0, i32 0
  store i32 %91, ptr %94, align 8, !tbaa !99
  %95 = load ptr, ptr %16, align 8, !tbaa !117
  %96 = getelementptr inbounds nuw %struct.dt_imageio_png_v2_t, ptr %95, i32 0, i32 1
  %97 = load i32, ptr %96, align 4, !tbaa !121
  %98 = load ptr, ptr %17, align 8, !tbaa !95
  %99 = getelementptr inbounds nuw %struct.dt_imageio_png_v3_t, ptr %98, i32 0, i32 0
  %100 = getelementptr inbounds nuw %struct.dt_imageio_module_data_t, ptr %99, i32 0, i32 1
  store i32 %97, ptr %100, align 4, !tbaa !102
  %101 = load ptr, ptr %16, align 8, !tbaa !117
  %102 = getelementptr inbounds nuw %struct.dt_imageio_png_v2_t, ptr %101, i32 0, i32 2
  %103 = load i32, ptr %102, align 8, !tbaa !122
  %104 = load ptr, ptr %17, align 8, !tbaa !95
  %105 = getelementptr inbounds nuw %struct.dt_imageio_png_v3_t, ptr %104, i32 0, i32 0
  %106 = getelementptr inbounds nuw %struct.dt_imageio_module_data_t, ptr %105, i32 0, i32 2
  store i32 %103, ptr %106, align 8, !tbaa !104
  %107 = load ptr, ptr %16, align 8, !tbaa !117
  %108 = getelementptr inbounds nuw %struct.dt_imageio_png_v2_t, ptr %107, i32 0, i32 3
  %109 = load i32, ptr %108, align 4, !tbaa !123
  %110 = load ptr, ptr %17, align 8, !tbaa !95
  %111 = getelementptr inbounds nuw %struct.dt_imageio_png_v3_t, ptr %110, i32 0, i32 0
  %112 = getelementptr inbounds nuw %struct.dt_imageio_module_data_t, ptr %111, i32 0, i32 3
  store i32 %109, ptr %112, align 4, !tbaa !106
  %113 = load ptr, ptr %17, align 8, !tbaa !95
  %114 = getelementptr inbounds nuw %struct.dt_imageio_png_v3_t, ptr %113, i32 0, i32 0
  %115 = getelementptr inbounds nuw %struct.dt_imageio_module_data_t, ptr %114, i32 0, i32 4
  %116 = getelementptr inbounds [128 x i8], ptr %115, i64 0, i64 0
  %117 = load ptr, ptr %16, align 8, !tbaa !117
  %118 = getelementptr inbounds nuw %struct.dt_imageio_png_v2_t, ptr %117, i32 0, i32 4
  %119 = getelementptr inbounds [128 x i8], ptr %118, i64 0, i64 0
  %120 = call i64 @g_strlcpy(ptr noundef %116, ptr noundef %119, i64 noundef 128)
  %121 = load ptr, ptr %16, align 8, !tbaa !117
  %122 = getelementptr inbounds nuw %struct.dt_imageio_png_v2_t, ptr %121, i32 0, i32 5
  %123 = load i32, ptr %122, align 8, !tbaa !124
  %124 = load ptr, ptr %17, align 8, !tbaa !95
  %125 = getelementptr inbounds nuw %struct.dt_imageio_png_v3_t, ptr %124, i32 0, i32 0
  %126 = getelementptr inbounds nuw %struct.dt_imageio_module_data_t, ptr %125, i32 0, i32 5
  store i32 %123, ptr %126, align 8, !tbaa !107
  %127 = load ptr, ptr %16, align 8, !tbaa !117
  %128 = getelementptr inbounds nuw %struct.dt_imageio_png_v2_t, ptr %127, i32 0, i32 6
  %129 = load i32, ptr %128, align 4, !tbaa !125
  %130 = load ptr, ptr %17, align 8, !tbaa !95
  %131 = getelementptr inbounds nuw %struct.dt_imageio_png_v3_t, ptr %130, i32 0, i32 1
  store i32 %129, ptr %131, align 4, !tbaa !109
  %132 = load ptr, ptr %17, align 8, !tbaa !95
  %133 = getelementptr inbounds nuw %struct.dt_imageio_png_v3_t, ptr %132, i32 0, i32 2
  store i32 9, ptr %133, align 8, !tbaa !110
  %134 = load ptr, ptr %16, align 8, !tbaa !117
  %135 = getelementptr inbounds nuw %struct.dt_imageio_png_v2_t, ptr %134, i32 0, i32 7
  %136 = load ptr, ptr %135, align 8, !tbaa !126
  %137 = load ptr, ptr %17, align 8, !tbaa !95
  %138 = getelementptr inbounds nuw %struct.dt_imageio_png_v3_t, ptr %137, i32 0, i32 3
  store ptr %136, ptr %138, align 8, !tbaa !112
  %139 = load ptr, ptr %16, align 8, !tbaa !117
  %140 = getelementptr inbounds nuw %struct.dt_imageio_png_v2_t, ptr %139, i32 0, i32 8
  %141 = load ptr, ptr %140, align 8, !tbaa !127
  %142 = load ptr, ptr %17, align 8, !tbaa !95
  %143 = getelementptr inbounds nuw %struct.dt_imageio_png_v3_t, ptr %142, i32 0, i32 4
  store ptr %141, ptr %143, align 8, !tbaa !114
  %144 = load ptr, ptr %16, align 8, !tbaa !117
  %145 = getelementptr inbounds nuw %struct.dt_imageio_png_v2_t, ptr %144, i32 0, i32 9
  %146 = load ptr, ptr %145, align 8, !tbaa !128
  %147 = load ptr, ptr %17, align 8, !tbaa !95
  %148 = getelementptr inbounds nuw %struct.dt_imageio_png_v3_t, ptr %147, i32 0, i32 5
  store ptr %146, ptr %148, align 8, !tbaa !116
  %149 = load ptr, ptr %12, align 8, !tbaa !90
  store i32 3, ptr %149, align 4, !tbaa !14
  %150 = load ptr, ptr %13, align 8, !tbaa !91
  store i64 156, ptr %150, align 8, !tbaa !82
  %151 = load ptr, ptr %17, align 8, !tbaa !95
  store ptr %151, ptr %7, align 8
  call void @llvm.lifetime.end.p0(i64 8, ptr %17) #13
  call void @llvm.lifetime.end.p0(i64 8, ptr %16) #13
  br label %154

152:                                              ; preds = %83
  br label %153

153:                                              ; preds = %152
  store ptr null, ptr %7, align 8
  br label %154

154:                                              ; preds = %153, %86, %20
  %155 = load ptr, ptr %7, align 8
  ret ptr %155
}