; Function Attrs: nounwind uwtable
define noundef ptr @legacy_params(ptr noundef readnone captures(none) %0, ptr noundef %1, i64 noundef %2, i32 noundef %3, ptr noundef writeonly captures(none) %4, ptr noundef writeonly captures(none) %5) local_unnamed_addr #1 {
  switch i32 %3, label %52 [
    i32 1, label %7
    i32 2, label %22
  ]

7:                                                ; preds = %6
  %8 = tail call noalias dereferenceable_or_null(184) ptr @malloc(i64 noundef 184) #22
  %9 = load i32, ptr %1, align 8, !tbaa !37
  store i32 %9, ptr %8, align 8, !tbaa !39
  %10 = getelementptr inbounds nuw i8, ptr %1, i64 4
  %11 = load i32, ptr %10, align 4, !tbaa !41
  %12 = getelementptr inbounds nuw i8, ptr %8, i64 4
  store i32 %11, ptr %12, align 4, !tbaa !42
  %13 = getelementptr inbounds nuw i8, ptr %1, i64 8
  %14 = load i32, ptr %13, align 8, !tbaa !43
  %15 = getelementptr inbounds nuw i8, ptr %8, i64 8
  store i32 %14, ptr %15, align 8, !tbaa !44
  %16 = getelementptr inbounds nuw i8, ptr %1, i64 12
  %17 = load i32, ptr %16, align 4, !tbaa !45
  %18 = getelementptr inbounds nuw i8, ptr %8, i64 12
  store i32 %17, ptr %18, align 4, !tbaa !46
  %19 = getelementptr inbounds nuw i8, ptr %8, i64 16
  %20 = getelementptr inbounds nuw i8, ptr %1, i64 16
  %21 = tail call i64 @g_strlcpy(ptr noundef nonnull %19, ptr noundef nonnull %20, i64 noundef 128) #20
  br label %.sink.split

22:                                               ; preds = %6
  %23 = tail call noalias dereferenceable_or_null(184) ptr @malloc(i64 noundef 184) #22
  %24 = load i32, ptr %1, align 8, !tbaa !47
  store i32 %24, ptr %23, align 8, !tbaa !39
  %25 = getelementptr inbounds nuw i8, ptr %1, i64 4
  %26 = load i32, ptr %25, align 4, !tbaa !49
  %27 = getelementptr inbounds nuw i8, ptr %23, i64 4
  store i32 %26, ptr %27, align 4, !tbaa !42
  %28 = getelementptr inbounds nuw i8, ptr %1, i64 8
  %29 = load i32, ptr %28, align 8, !tbaa !50
  %30 = getelementptr inbounds nuw i8, ptr %23, i64 8
  store i32 %29, ptr %30, align 8, !tbaa !44
  %31 = getelementptr inbounds nuw i8, ptr %1, i64 12
  %32 = load i32, ptr %31, align 4, !tbaa !51
  %33 = getelementptr inbounds nuw i8, ptr %23, i64 12
  store i32 %32, ptr %33, align 4, !tbaa !46
  %34 = getelementptr inbounds nuw i8, ptr %23, i64 16
  %35 = getelementptr inbounds nuw i8, ptr %1, i64 16
  %36 = tail call i64 @g_strlcpy(ptr noundef nonnull %34, ptr noundef nonnull %35, i64 noundef 128) #20
  %37 = getelementptr inbounds nuw i8, ptr %1, i64 144
  %38 = load i32, ptr %37, align 8, !tbaa !52
  br label %.sink.split

.sink.split:                                      ; preds = %7, %22
  %.sink67 = phi ptr [ %8, %7 ], [ %23, %22 ]
  %.sink65 = phi i32 [ 0, %7 ], [ %38, %22 ]
  %.sink64 = phi i64 [ 144, %7 ], [ 148, %22 ]
  %39 = getelementptr inbounds nuw i8, ptr %.sink67, i64 144
  store i32 %.sink65, ptr %39, align 8, !tbaa !53
  %40 = getelementptr inbounds nuw i8, ptr %1, i64 %.sink64
  %.sink = load i32, ptr %40, align 4, !tbaa !23
  %41 = getelementptr inbounds nuw i8, ptr %.sink67, i64 148
  store i32 %.sink, ptr %41, align 4, !tbaa !54
  %42 = getelementptr inbounds nuw i8, ptr %.sink67, i64 152
  store i32 9, ptr %42, align 8, !tbaa !55
  %43 = getelementptr inbounds nuw i8, ptr %1, i64 152
  %44 = load ptr, ptr %43, align 8, !tbaa !56
  %45 = getelementptr inbounds nuw i8, ptr %.sink67, i64 160
  store ptr %44, ptr %45, align 8, !tbaa !57
  %46 = getelementptr inbounds nuw i8, ptr %1, i64 160
  %47 = load ptr, ptr %46, align 8, !tbaa !17
  %48 = getelementptr inbounds nuw i8, ptr %.sink67, i64 168
  store ptr %47, ptr %48, align 8, !tbaa !58
  %49 = getelementptr inbounds nuw i8, ptr %1, i64 168
  %50 = load ptr, ptr %49, align 8, !tbaa !18
  %51 = getelementptr inbounds nuw i8, ptr %.sink67, i64 176
  store ptr %50, ptr %51, align 8, !tbaa !59
  store i32 3, ptr %4, align 4, !tbaa !23
  store i64 156, ptr %5, align 8, !tbaa !60
  br label %52

52:                                               ; preds = %.sink.split, %6
  %.0 = phi ptr [ null, %6 ], [ %.sink67, %.sink.split ]
  ret ptr %.0
}